; Function Attrs: mustprogress uwtable
define dso_local void @_ZN10Bookkeeper20record_address_takenEPK8Variable(ptr noundef captures(none) initializes((84, 85)) %0) local_unnamed_addr #6 align 2 {
  %2 = getelementptr inbounds nuw i8, ptr %0, i64 64
  %3 = load ptr, ptr %2, align 8, !tbaa !103
  %4 = getelementptr inbounds nuw i8, ptr %0, i64 84
  store i8 1, ptr %4, align 4, !tbaa !151
  %5 = load i32, ptr @_ZN10Bookkeeper17address_taken_cntE, align 4, !tbaa !12
  %6 = add nsw i32 %5, 1
  store i32 %6, ptr @_ZN10Bookkeeper17address_taken_cntE, align 4, !tbaa !12
  %7 = tail call noundef zeroext i1 @_ZNK4Type13has_bitfieldsEv(ptr noundef nonnull align 8 dereferenceable(136) %3)
  br i1 %7, label %8, label %11

8:                                                ; preds = %1
  %9 = load i32, ptr @_ZN10Bookkeeper37vars_with_bitfields_address_taken_cntE, align 4, !tbaa !12
  %10 = add nsw i32 %9, 1
  store i32 %10, ptr @_ZN10Bookkeeper37vars_with_bitfields_address_taken_cntE, align 4, !tbaa !12
  br label %11

11:                                               ; preds = %8, %1
  ret void
}